; Function Attrs: mustprogress nounwind uwtable
define dso_local void @_ZNK4llvm15DWARFDebugNames9NameIndex12dumpLocalTUsERNS_13ScopedPrinterE(ptr noundef nonnull readonly align 8 captures(none) dereferenceable(160) %0, ptr noundef nonnull align 8 dereferenceable(44) %1) local_unnamed_addr #3 align 2 {
  %3 = alloca i64, align 8
  %4 = alloca %"class.llvm::format_object.170", align 8
  %5 = getelementptr inbounds nuw i8, ptr %0, i64 40
  %6 = load i32, ptr %5, align 8
  %7 = icmp eq i32 %6, 0
  br i1 %7, label %43, label %8

8:                                                ; preds = %2
  %9 = load ptr, ptr %1, align 8
  %10 = getelementptr inbounds nuw i8, ptr %9, i64 272
  %11 = load ptr, ptr %10, align 8
  tail call void %11(ptr noundef nonnull align 8 dereferenceable(44) %1, ptr nonnull @.str.60, i64 23) #27
  %12 = load i32, ptr %5, align 8
  %.not = icmp eq i32 %12, 0
  br i1 %.not, label %_ZN4llvm9ListScopeD2Ev.exit, label %.lr.ph

.lr.ph:                                           ; preds = %8
  %13 = getelementptr inbounds nuw i8, ptr %0, i64 32
  %14 = getelementptr inbounds nuw i8, ptr %0, i64 112
  %15 = getelementptr inbounds nuw i8, ptr %0, i64 36
  %16 = getelementptr inbounds nuw i8, ptr %0, i64 96
  %17 = getelementptr inbounds nuw i8, ptr %4, i64 8
  %18 = getelementptr inbounds nuw i8, ptr %4, i64 16
  %19 = getelementptr inbounds nuw i8, ptr %4, i64 24
  br label %20

20:                                               ; preds = %.lr.ph, %20
  %storemerge8 = phi i32 [ 0, %.lr.ph ], [ %37, %20 ]
  %21 = load ptr, ptr %1, align 8
  %22 = getelementptr inbounds nuw i8, ptr %21, i64 288
  %23 = load ptr, ptr %22, align 8
  %24 = call noundef nonnull align 8 dereferenceable(48) ptr %23(ptr noundef nonnull align 8 dereferenceable(44) %1) #27
  call void @llvm.lifetime.start.p0(i64 8, ptr nonnull %3)
  %25 = load i8, ptr %13, align 8
  %switch.i.i = icmp eq i8 %25, 0
  %..i.i = select i1 %switch.i.i, i32 4, i32 8
  %26 = load i64, ptr %14, align 8
  %27 = load i32, ptr %15, align 4
  %28 = add i32 %27, %storemerge8
  %29 = select i1 %switch.i.i, i32 2, i32 3
  %30 = shl i32 %28, %29
  %31 = zext i32 %30 to i64
  %32 = add i64 %26, %31
  store i64 %32, ptr %3, align 8
  %33 = load ptr, ptr %16, align 8
  %34 = getelementptr inbounds nuw i8, ptr %33, i64 8
  %35 = call noundef i64 @_ZNK4llvm18DWARFDataExtractor17getRelocatedValueEjPmS1_PNS_5ErrorE(ptr noundef nonnull align 8 dereferenceable(40) %34, i32 noundef %..i.i, ptr noundef nonnull %3, ptr noundef null, ptr noundef null) #27
  call void @llvm.lifetime.end.p0(i64 8, ptr nonnull %3)
  store ptr @.str.61, ptr %17, align 8, !alias.scope !505
  store ptr getelementptr inbounds nuw inrange(-16, 16) (i8, ptr @_ZTVN4llvm13format_objectIJjmEEE, i64 16), ptr %4, align 8, !alias.scope !505
  store i64 %35, ptr %18, align 8, !alias.scope !505
  store i32 %storemerge8, ptr %19, align 8, !alias.scope !505
  %36 = call noundef nonnull align 8 dereferenceable(48) ptr @_ZN4llvm11raw_ostreamlsERKNS_18format_object_baseE(ptr noundef nonnull align 8 dereferenceable(48) %24, ptr noundef nonnull align 8 dereferenceable(16) %4) #27
  %37 = add nuw i32 %storemerge8, 1
  %38 = load i32, ptr %5, align 8
  %39 = icmp ult i32 %37, %38
  br i1 %39, label %20, label %_ZN4llvm9ListScopeD2Ev.exit, !llvm.loop !508

_ZN4llvm9ListScopeD2Ev.exit:                      ; preds = %20, %8
  %40 = load ptr, ptr %1, align 8
  %41 = getelementptr inbounds nuw i8, ptr %40, i64 280
  %42 = load ptr, ptr %41, align 8
  call void %42(ptr noundef nonnull align 8 dereferenceable(44) %1) #27
  br label %43

43:                                               ; preds = %2, %_ZN4llvm9ListScopeD2Ev.exit
  ret void
}